#include <math.h>
#include <stdio.h>
#include <stdlib.h>
#include <string.h>

int main()
{
	int sz[1001];
	int js[1001];
	int n,i,k,a,b;
	b=0;
	scanf("%d",&n);
	scanf("%d",&k);
	for(i=0;i<n;i++)
	{
		scanf("%d",&(sz[i]));
	}
	for(i=0;i<n;i++)
	{
		if(i!=n-1)
		{
		for(a=i+1;a<n;a++)
		{
			if(sz[i]+sz[a]==k)
			{
				b=b-1000000;
				break;
			}
			b=b+1;
		}
		}
	}
	if(b==(n*(n-1))/2)
		printf("no");
	else
		printf("yes");
	return 0;
}
